target datalayout = "e-m:e-p270:32:32-p271:32:32-p272:64:64-i64:64-i128:128-f80:128-n8:16:32:64-S128"
target triple = "x86_64-pc-linux-gnu"

%"struct.toku::range_buffer::record_header" = type { i8, i8, i8, i8, i16, i16, i8 }

; Function Attrs: mustprogress nounwind uwtable
define noundef zeroext i1 @_ZNK4toku12range_buffer13record_header17right_is_infiniteEv(ptr noundef nonnull align 2 dereferenceable(10) %0) #0 align 2 {
  %2 = alloca ptr, align 8
  store ptr %0, ptr %2, align 8, !tbaa !4
  %3 = load ptr, ptr %2, align 8
  %4 = getelementptr inbounds nuw %"struct.toku::range_buffer::record_header", ptr %3, i32 0, i32 3
  %5 = load i8, ptr %4, align 1, !tbaa !16, !range !13, !noundef !14
  %6 = trunc i8 %5 to i1
  br i1 %6, label %11, label %7

7:                                                ; preds = %1
  %8 = getelementptr inbounds nuw %"struct.toku::range_buffer::record_header", ptr %3, i32 0, i32 2
  %9 = load i8, ptr %8, align 2, !tbaa !17, !range !13, !noundef !14
  %10 = trunc i8 %9 to i1
  br label %11

11:                                               ; preds = %7, %1
  %12 = phi i1 [ true, %1 ], [ %10, %7 ]
  ret i1 %12
}