; Function Attrs: mustprogress nofree norecurse nosync nounwind willreturn memory(argmem: read) uwtable
define noundef zeroext i1 @_ZNK4toku12range_buffer13record_header17right_is_infiniteEv(ptr noundef nonnull readonly align 2 captures(none) dereferenceable(10) %0) local_unnamed_addr #0 align 2 {
  %2 = getelementptr inbounds nuw i8, ptr %0, i64 3
  %3 = load i8, ptr %2, align 1, !tbaa !12, !range !10, !noundef !11
  %4 = trunc nuw i8 %3 to i1
  %5 = getelementptr inbounds nuw i8, ptr %0, i64 2
  %6 = load i8, ptr %5, align 2, !range !10
  %7 = trunc nuw i8 %6 to i1
  %8 = select i1 %4, i1 true, i1 %7
  ret i1 %8
}